; Function Attrs: nofree norecurse nosync nounwind memory(argmem: readwrite) uwtable
define internal void @put_luma_v_10(ptr noundef writeonly captures(none) %0, ptr noundef readonly captures(none) %1, i64 noundef %2, i32 noundef %3, ptr readnone captures(none) %4, ptr noundef readonly captures(none) %5, i32 noundef %6) #2 {
  %8 = lshr i64 %2, 1
  %9 = icmp sgt i32 %3, 0
  br i1 %9, label %.preheader.lr.ph, label %._crit_edge51

.preheader.lr.ph:                                 ; preds = %7
  %10 = icmp sgt i32 %6, 0
  %11 = mul nuw nsw i64 %8, 3
  %12 = getelementptr inbounds nuw i8, ptr %5, i64 1
  %13 = and i64 %2, -2
  %14 = getelementptr inbounds nuw i8, ptr %5, i64 2
  %15 = getelementptr inbounds nuw i8, ptr %5, i64 3
  %16 = getelementptr inbounds nuw i8, ptr %5, i64 4
  %17 = getelementptr inbounds nuw i8, ptr %5, i64 5
  %18 = getelementptr inbounds nuw i8, ptr %5, i64 6
  %19 = getelementptr inbounds nuw i8, ptr %5, i64 7
  %.idx = shl nsw i64 %8, 3
  br i1 %10, label %.preheader.us.preheader, label %._crit_edge51

.preheader.us.preheader:                          ; preds = %.preheader.lr.ph
  %wide.trip.count = zext nneg i32 %6 to i64
  br label %.preheader.us

.preheader.us:                                    ; preds = %.preheader.us.preheader, %._crit_edge.us
  %.04450.us = phi i32 [ %87, %._crit_edge.us ], [ 0, %.preheader.us.preheader ]
  %.04549.us = phi ptr [ %86, %._crit_edge.us ], [ %0, %.preheader.us.preheader ]
  %.04648.us = phi ptr [ %20, %._crit_edge.us ], [ %1, %.preheader.us.preheader ]
  %20 = getelementptr inbounds nuw i16, ptr %.04648.us, i64 %8
  %21 = getelementptr i16, ptr %.04648.us, i64 %13
  %22 = getelementptr inbounds nuw i16, ptr %.04648.us, i64 %11
  %23 = getelementptr inbounds nuw i8, ptr %.04648.us, i64 %.idx
  br label %24

24:                                               ; preds = %.preheader.us, %24
  %indvars.iv = phi i64 [ 0, %.preheader.us ], [ %indvars.iv.next, %24 ]
  %25 = load i8, ptr %5, align 1, !tbaa !128
  %26 = sext i8 %25 to i32
  %27 = sub nsw i64 %indvars.iv, %11
  %28 = getelementptr inbounds i16, ptr %.04648.us, i64 %27
  %29 = load i16, ptr %28, align 2, !tbaa !124
  %30 = zext i16 %29 to i32
  %31 = mul nsw i32 %30, %26
  %32 = load i8, ptr %12, align 1, !tbaa !128
  %33 = sext i8 %32 to i32
  %34 = sub nsw i64 %indvars.iv, %13
  %35 = getelementptr inbounds i16, ptr %.04648.us, i64 %34
  %36 = load i16, ptr %35, align 2, !tbaa !124
  %37 = zext i16 %36 to i32
  %38 = mul nsw i32 %37, %33
  %39 = add nsw i32 %38, %31
  %40 = load i8, ptr %14, align 1, !tbaa !128
  %41 = sext i8 %40 to i32
  %42 = sub nsw i64 %indvars.iv, %8
  %43 = getelementptr inbounds i16, ptr %.04648.us, i64 %42
  %44 = load i16, ptr %43, align 2, !tbaa !124
  %45 = zext i16 %44 to i32
  %46 = mul nsw i32 %45, %41
  %47 = add nsw i32 %39, %46
  %48 = load i8, ptr %15, align 1, !tbaa !128
  %49 = sext i8 %48 to i32
  %50 = getelementptr inbounds nuw i16, ptr %.04648.us, i64 %indvars.iv
  %51 = load i16, ptr %50, align 2, !tbaa !124
  %52 = zext i16 %51 to i32
  %53 = mul nsw i32 %52, %49
  %54 = add nsw i32 %47, %53
  %55 = load i8, ptr %16, align 1, !tbaa !128
  %56 = sext i8 %55 to i32
  %57 = getelementptr inbounds nuw i16, ptr %20, i64 %indvars.iv
  %58 = load i16, ptr %57, align 2, !tbaa !124
  %59 = zext i16 %58 to i32
  %60 = mul nsw i32 %59, %56
  %61 = add nsw i32 %54, %60
  %62 = load i8, ptr %17, align 1, !tbaa !128
  %63 = sext i8 %62 to i32
  %64 = getelementptr i16, ptr %21, i64 %indvars.iv
  %65 = load i16, ptr %64, align 2, !tbaa !124
  %66 = zext i16 %65 to i32
  %67 = mul nsw i32 %66, %63
  %68 = add nsw i32 %61, %67
  %69 = load i8, ptr %18, align 1, !tbaa !128
  %70 = sext i8 %69 to i32
  %71 = getelementptr inbounds nuw i16, ptr %22, i64 %indvars.iv
  %72 = load i16, ptr %71, align 2, !tbaa !124
  %73 = zext i16 %72 to i32
  %74 = mul nsw i32 %73, %70
  %75 = add nsw i32 %68, %74
  %76 = load i8, ptr %19, align 1, !tbaa !128
  %77 = sext i8 %76 to i32
  %78 = getelementptr inbounds nuw i16, ptr %23, i64 %indvars.iv
  %79 = load i16, ptr %78, align 2, !tbaa !124
  %80 = zext i16 %79 to i32
  %81 = mul nsw i32 %80, %77
  %82 = add nsw i32 %75, %81
  %83 = lshr i32 %82, 2
  %84 = trunc i32 %83 to i16
  %85 = getelementptr inbounds nuw i16, ptr %.04549.us, i64 %indvars.iv
  store i16 %84, ptr %85, align 2, !tbaa !124
  %indvars.iv.next = add nuw nsw i64 %indvars.iv, 1
  %exitcond.not = icmp eq i64 %indvars.iv.next, %wide.trip.count
  br i1 %exitcond.not, label %._crit_edge.us, label %24, !llvm.loop !446

._crit_edge.us:                                   ; preds = %24
  %86 = getelementptr inbounds nuw i8, ptr %.04549.us, i64 256
  %87 = add nuw nsw i32 %.04450.us, 1
  %exitcond54.not = icmp eq i32 %87, %3
  br i1 %exitcond54.not, label %._crit_edge51, label %.preheader.us, !llvm.loop !447

._crit_edge51:                                    ; preds = %._crit_edge.us, %.preheader.lr.ph, %7
  ret void
}